(dp1
S'profile'
p2
S'VARCHAR(512) NOT NULL'
p3
sS'name'
p4
S'VARCHAR(512) NOT NULL'
p5
sS'warned'
p6
S'TIMESTAMP'
p7
sS'banned'
p8
S'CHAR(1)'
p9
sS'removed'
p10
S'TIMESTAMP'
p11
sS'id'
p12
S'SERIAL PRIMARY KEY'
p13
s.