(dp1
S'output'
p2
S''
sS'layer'
p3
S'/home/tiago/moderatool/applications/moderatool/controllers/default.py'
p4
sS'code'
p5
S'# -*- coding: utf-8 -*-\n# this file is released under public domain and you can use without limitations\n\n#########################################################################\n## This is a samples controller\n## - index is the default action of any application\n## - user is required for authentication and authorization\n## - download is for downloading files uploaded in the db (does streaming)\n## - call exposes all registered services (none by default)\n#########################################################################\n\ndef index():\n    """\n    example action using the internationalization operator T and flash\n    rendered by views/default/index.html or views/generic.html\n    """\n    members = Members(Members.id>0).select()\n    return dict(members=members)\n\ndef user():\n    """\n    exposes:\n    http://..../[app]/default/user/login\n    http://..../[app]/default/user/logout\n    http://..../[app]/default/user/register\n    http://..../[app]/default/user/profile\n    http://..../[app]/default/user/retrieve_password\n    http://..../[app]/default/user/change_password\n    use @auth.requires_login()\n        @auth.requires_membership(\'group name\')\n        @auth.requires_permission(\'read\',\'table name\',record_id)\n    to decorate functions that need access control\n    """\n    return dict(form=auth())\n\n\ndef download():\n    """\n    allows downloading of uploaded files\n    http://..../[app]/default/download/[filename]\n    """\n    return response.download(request,db)\n\n\ndef call():\n    """\n    exposes services. for example:\n    http://..../[app]/default/call/jsonrpc\n    decorate with @services.jsonrpc the functions to expose\n    supports xml, json, xmlrpc, jsonrpc, amfrpc, rss, csv\n    """\n    session.forget()\n    return service()\n\n\n\nresponse._vars=response._caller(index)\n'
p6
sS'snapshot'
p7
(dp8
S'exception'
p9
(dp10
S'__hash__'
p11
S"<method-wrapper '__hash__' of exceptions.KeyError object>"
p12
sS'__setattr__'
p13
S"<method-wrapper '__setattr__' of exceptions.KeyError object>"
p14
sS'__reduce_ex__'
p15
S'<built-in method __reduce_ex__ of exceptions.KeyError object>'
p16
sS'__getslice__'
p17
S"<method-wrapper '__getslice__' of exceptions.KeyError object>"
p18
sS'__getitem__'
p19
S"<method-wrapper '__getitem__' of exceptions.KeyError object>"
p20
sS'__setstate__'
p21
S'<built-in method __setstate__ of exceptions.KeyError object>'
p22
sS'__reduce__'
p23
S'<built-in method __reduce__ of exceptions.KeyError object>'
p24
sS'__str__'
p25
S"<method-wrapper '__str__' of exceptions.KeyError object>"
p26
sS'__format__'
p27
S'<built-in method __format__ of exceptions.KeyError object>'
p28
sS'__getattribute__'
p29
S"<method-wrapper '__getattribute__' of exceptions.KeyError object>"
p30
sS'__class__'
p31
S"<type 'exceptions.KeyError'>"
p32
sS'__unicode__'
p33
S'<built-in method __unicode__ of exceptions.KeyError object>'
p34
sS'__delattr__'
p35
S"<method-wrapper '__delattr__' of exceptions.KeyError object>"
p36
sS'__subclasshook__'
p37
S'<built-in method __subclasshook__ of type object>'
p38
sS'__repr__'
p39
S"<method-wrapper '__repr__' of exceptions.KeyError object>"
p40
sS'args'
p41
S"('select',)"
p42
sS'__dict__'
p43
S'{}'
p44
sS'__sizeof__'
p45
S'<built-in method __sizeof__ of exceptions.KeyError object>'
p46
sS'__doc__'
p47
S"'Mapping key not found.'"
p48
sS'__init__'
p49
S"<method-wrapper '__init__' of exceptions.KeyError object>"
p50
sS'__new__'
p51
S'<built-in method __new__ of type object>'
p52
ssS'evalue'
p53
S"'select'"
p54
sS'request'
p55
(dp56
S'function'
p57
S"'index'"
p58
sS'body'
p59
S'<cStringIO.StringO object>'
p60
sS'wsgi'
p61
S"<Storage {'start_response': <function <lambda> a...': 'gzip,deflate', 'PATH_INFO': '/moderatool/'}}>"
p62
sS'extension'
p63
S"'html'"
p64
sS'vars'
p65
S'<Storage {}>'
p66
sS'cid'
p67
S'None'
p68
sS'url'
p69
S'<gluon.html.XML object>'
p70
sS'raw_extension'
p71
S'None'
p72
sg41
S'[]'
p73
sS'controller'
p74
S"'default'"
p75
sS'cookies'
p76
S"<SimpleCookie: session_id_admin='127.0.0.1-1ddb3...'127.0.0.1-21cfdd1b-db51-43cb-bdf7-c7cc378afb50'>"
p77
sS'application'
p78
S"'moderatool'"
p79
sS'ajax'
p80
S'False'
p81
sS'client'
p82
S"'127.0.0.1'"
p83
sS'env'
p84
S"<Storage {'wsgi_multithread': True, 'http_accept...ote_port': '50048', 'path_info': '/moderatool/'}>"
p85
sS'raw_args'
p86
S'None'
p87
sS'get_vars'
p88
S'<Storage {}>'
p89
sS'folder'
p90
S"'/home/tiago/moderatool/applications/moderatool/'"
p91
sS'now'
p92
S'datetime.datetime(2011, 1, 7, 23, 14, 48, 536064)'
p93
sS'post_vars'
p94
S'<Storage {}>'
p95
ssS'frames'
p96
(lp97
(dp98
S'file'
p99
S'/home/tiago/moderatool/gluon/restricted.py'
p100
sS'dump'
p101
(dp102
S'environment'
p103
S"{'A': <class 'gluon.html.A'>, 'Auth': <class 'gluon.tools.Auth'>, 'B': <class 'gluon.html.B'>, 'BEAUTIFY': <class 'gluon.html.BEAUTIFY'>, 'BODY': <class 'gluon.html.BODY'>, 'BR': <class 'gluon.html.BR'>, 'CENTER': <class 'gluon.html.CENTER'>, 'CLEANUP': <class 'gluon.validators.CLEANUP'>, 'CODE': <class 'gluon.html.CODE'>, 'CRYPT': <class 'gluon.validators.CRYPT'>, ...}"
p104
sS'ccode'
p105
S'<code object <module> at 0x9f9a9b0, file "/home/...ions/moderatool/controllers/default.py", line 12>'
p106
ssS'lnum'
p107
I188
sS'lines'
p108
(dp109
I192
S'        # XXX Show exception in Wing IDE if running in debugger'
p110
sI183
S'        if type(code) == types.CodeType:'
p111
sI184
S'            ccode = code'
p112
sI185
S'        else:'
p113
sI186
S'            ccode = compile2(code,layer)'
p114
sI187
S''
sI188
S'        exec ccode in environment'
p115
sI189
S'    except HTTP:'
p116
sI190
S'        raise'
p117
sI191
S'    except Exception:'
p118
ssS'call'
p119
S"(code='# -*- coding: utf-8 -*-\\n# this file is released ...vice()\\n\\n\\n\\nresponse._vars=response._caller(index)\\n', environment={'A': <class 'gluon.html.A'>, 'Auth': <class 'gluon.tools.Auth'>, 'B': <class 'gluon.html.B'>, 'BEAUTIFY': <class 'gluon.html.BEAUTIFY'>, 'BODY': <class 'gluon.html.BODY'>, 'BR': <class 'gluon.html.BR'>, 'CENTER': <class 'gluon.html.CENTER'>, 'CLEANUP': <class 'gluon.validators.CLEANUP'>, 'CODE': <class 'gluon.html.CODE'>, 'CRYPT': <class 'gluon.validators.CRYPT'>, ...}, layer='/home/tiago/moderatool/applications/moderatool/controllers/default.py')"
p120
sS'func'
p121
S'restricted'
p122
sa(dp123
g99
S'/home/tiago/moderatool/applications/moderatool/controllers/default.py'
p124
sg101
(dp125
sg107
I57
sg108
(dp126
I46
S'    """'
p127
sI47
S'    exposes services. for example:'
p128
sI48
S'    http://..../[app]/default/call/jsonrpc'
p129
sI49
S'    decorate with @services.jsonrpc the functions to expose'
p130
sI50
S'    supports xml, json, xmlrpc, jsonrpc, amfrpc, rss, csv'
p131
sI51
S'    """'
p132
sI52
S'    session.forget()'
p133
sI53
S'    return service()'
p134
sI54
S''
sI55
S''
ssg119
S'()'
p135
sg121
S'<module>'
p136
sa(dp137
g99
S'/home/tiago/moderatool/gluon/globals.py'
p138
sg101
(dp139
S'self'
p140
S'undefined'
p141
sS'f'
S'<function index>'
p142
ssg107
I95
sg108
(dp143
I96
S'        self._view_environment = None'
p144
sI97
S'        self._custom_commit = None'
p145
sI98
S'        self._custom_rollback = None'
p146
sI99
S''
sI90
S"        self.flash = ''           # used by the default view layout"
p147
sI91
S'        self.meta = Storage()     # used by web2py_ajax.html'
p148
sI92
S'        self.menu = []            # used by the default view layout'
p149
sI93
S'        self.files = []           # used by web2py_ajax.html'
p150
sI94
S'        self._vars = None'
p151
sI95
S'        self._caller = lambda f: f()'
p152
ssg119
S'(f=<function index>)'
p153
sg121
S'<lambda>'
p154
sa(dp155
g99
S'/home/tiago/moderatool/applications/moderatool/controllers/default.py'
p156
sg101
(dp157
S'Members.id'
p158
S'<gluon.dal.Field object>'
p159
sS'global Members'
p160
S"<Table {'profile': <gluon.dal.Field object at 0x...c>, 'id': <gluon.dal.Field object at 0x9d0062c>}>"
p161
sS'members'
p162
g141
sS').select'
p163
g141
ssg107
I17
sg108
(dp164
I12
S'def index():'
p165
sI13
S'    """'
p166
sI14
S'    example action using the internationalization operator T and flash'
p167
sI15
S'    rendered by views/default/index.html or views/generic.html'
p168
sI16
S'    """'
p169
sI17
S'    members = Members(Members.id>0).select()'
p170
sI18
S'    return dict(members=members)'
p171
sI19
S''
sI20
S'def user():'
p172
sI21
S'    """'
p173
ssg119
S'()'
p174
sg121
S'index'
p175
sa(dp176
g99
S'/home/tiago/moderatool/gluon/dal.py'
p177
sg101
(dp178
S'self'
p179
S"<Row {'profile': 'http://www.orkut.com.br/Main#P...elete_record': <function <lambda> at 0x9f7aa3c>}>"
p180
sS'dict.__getitem__'
p181
S"<method '__getitem__' of 'dict' objects>"
p182
sS'key'
p183
S"'select'"
p184
sS'builtindict'
p185
S"<type 'dict'>"
p186
ssg107
I3174
sg108
(dp187
I3169
S''
sI3170
S'    def __setitem__(self, key, value):'
p188
sI3171
S'        dict.__setitem__(self, str(key), value)'
p189
sI3172
S''
sI3173
S'    def __getattr__(self, key):'
p190
sI3174
S'        return dict.__getitem__(self,key)'
p191
sI3175
S''
sI3176
S'    def __setattr__(self, key, value):'
p192
sI3177
S'        dict.__setitem__(self,key,value)'
p193
sI3178
S''
ssg119
S"(self=<Row {'profile': 'http://www.orkut.com.br/Main#P...elete_record': <function <lambda> at 0x9f7aa3c>}>, key='select')"
p194
sg121
S'__getattr__'
p195
sasS'pyver'
p196
S'Python 2.6.5: /usr/bin/python'
p197
sS'session'
p198
(dp199
S'last_orderby'
p200
S'None'
p201
sS'last_query'
p202
S"'db.members.id>0'"
p203
sS'_formkey[members_create]'
p204
S"'e73ddd24-d93f-4d44-853e-c6bd8902e0e5'"
p205
sS'auth'
p206
S'None'
p207
ssS'etype'
p208
S"<type 'exceptions.KeyError'>"
p209
sS'date'
p210
S'Fri Jan  7 23:14:48 2011'
p211
sS'response'
p212
(dp213
S'status'
p214
S'200'
p215
sg59
S'<cStringIO.StringO object>'
p216
sg76
S"<SimpleCookie: session_id_moderatool='127.0.0.1-21cfdd1b-db51-43cb-bdf7-c7cc378afb50'>"
p217
sS'_vars'
p218
S'None'
p219
sS'title'
p220
S"'moderatool'"
p221
sS'session_file'
p222
S"<open file '/home/tiago/moderatool/applications/...1cfdd1b-db51-43cb-bdf7-c7cc378afb50', mode 'rb+'>"
p223
sS'flash'
p224
S"''"
p225
sS'_custom_rollback'
p226
S'None'
p227
sS'session_id'
p228
S"'127.0.0.1-21cfdd1b-db51-43cb-bdf7-c7cc378afb50'"
p229
sS'headers'
p230
S"<Storage {'Expires': 'Sat, 08 Jan 2011 01:14:48 ...he, must-revalidate, post-check=0, pre-check=0'}>"
p231
sS'meta'
p232
S"<Storage {'keywords': 'web2py, python, framework... 'Web2py Enterprise Framework', 'author': 'you'}>"
p233
sS'session_filename'
p234
S"'/home/tiago/moderatool/applications/moderatool/s...ns/127.0.0.1-21cfdd1b-db51-43cb-bdf7-c7cc378afb50'"
p235
sS'postprocessing'
p236
S'[]'
p237
sS'menu'
p238
S"[(<lazyT 'Home'>, False, <gluon.html.XML object>, []), (<lazyT 'This App'>, False, <gluon.html.XML object>, [(<lazyT 'Controller'>, False, <gluon.html.XML object>), (<lazyT 'View'>, False, <gluon.html.XML object>), (<lazyT 'Layout'>, False, <gluon.html.XML object>), (<lazyT 'Stylesheet'>, False, <gluon.html.XML object>), (<lazyT 'DB Model'>, False, <gluon.html.XML object>), (<lazyT 'Menu Model'>, False, <gluon.html.XML object>), (<lazyT 'Database'>, False, <gluon.html.XML object>), (<lazyT 'Errors'>, False, <gluon.html.XML object>), (<lazyT 'About'>, False, <gluon.html.XML object>)]), (<lazyT 'Resources'>, False, None, [(<lazyT 'Documentation'>, False, 'http://www.web2py.com/book', [(<lazyT 'Preface'>, False, 'http://www.web2py.com/book/default/chapter/00'), (<lazyT 'Introduction'>, False, 'http://www.web2py.com/book/default/chapter/01'), (<lazyT 'Python'>, False, 'http://www.web2py.com/book/default/chapter/02'), (<lazyT 'Overview'>, False, 'http://www.web2py.com/book/default/chapter/03'), (<lazyT 'The Core'>, False, 'http://www.web2py.com/book/default/chapter/04'), (<lazyT 'The Views'>, False, 'http://www.web2py.com/book/default/chapter/05'), (<lazyT 'Database'>, False, 'http://www.web2py.com/book/default/chapter/06'), (<lazyT 'Forms and Validators'>, False, 'http://www.web2py.com/book/default/chapter/07'), (<lazyT 'Access Control'>, False, 'http://www.web2py.com/book/default/chapter/08'), (<lazyT 'Services'>, False, 'http://www.web2py.com/book/default/chapter/09'), (<lazyT 'Ajax Recipes'>, False, 'http://www.web2py.com/book/default/chapter/10'), (<lazyT 'Deployment Recipes'>, False, 'http://www.web2py.com/book/default/chapter/11'), (<lazyT 'Other Recipes'>, False, 'http://www.web2py.com/book/default/chapter/12'), (<lazyT 'Buy this book'>, False, 'http://stores.lulu.com/web2py')]), (<lazyT 'Community'>, False, None, [(<lazyT 'Groups'>, False, 'http://www.web2py.com/examples/default/usergroups'), (<lazyT 'Twitter'>, False, 'http://twitter.com/web2py'), (<lazyT 'Live chat'>, False, 'http://mibbit.com/?channel=%23web2py&server=irc.mibbit.net'), (<lazyT 'User Voice'>, False, 'http://web2py.uservoice.com/')]), (<lazyT 'Web2py'>, False, 'http://www.web2py.com', [(<lazyT 'Download'>, False, 'http://www.web2py.com/examples/default/download'), (<lazyT 'Support'>, False, 'http://www.web2py.com/examples/default/support'), (<lazyT 'Quick Examples'>, False, 'http://web2py.com/examples/default/examples'), (<lazyT 'FAQ'>, False, 'http://web2py.com/AlterEgo'), (<lazyT 'Free Applications'>, False, 'http://web2py.com/appliances'), (<lazyT 'Plugins'>, False, 'http://web2py.com/plugins'), (<lazyT 'Recipes'>, False, 'http://web2pyslices.com/'), (<lazyT 'Demo'>, False, 'http://web2py.com/demo_admin'), (<lazyT 'Semantic'>, False, 'http://web2py.com/semantic'), (<lazyT 'Layouts'>, False, 'http://web2py.com/layouts'), (<lazyT 'Videos'>, False, 'http://www.web2py.com/examples/default/videos/')])])]"
p239
sS'_view_environment'
p240
S"{'A': <class 'gluon.html.A'>, 'Auth': <class 'gluon.tools.Auth'>, 'B': <class 'gluon.html.B'>, 'BEAUTIFY': <class 'gluon.html.BEAUTIFY'>, 'BODY': <class 'gluon.html.BODY'>, 'BR': <class 'gluon.html.BR'>, 'CENTER': <class 'gluon.html.CENTER'>, 'CLEANUP': <class 'gluon.validators.CLEANUP'>, 'CODE': <class 'gluon.html.CODE'>, 'CRYPT': <class 'gluon.validators.CRYPT'>, ...}"
p241
sS'subtitle'
p242
S"<lazyT 'customize me!'>"
p243
sS'session_id_name'
p244
S"'session_id_moderatool'"
p245
sS'_custom_commit'
p246
S'None'
p247
sS'_caller'
p248
S'<function <lambda>>'
p249
sS'files'
p250
S'[]'
p251
sS'view'
p252
S"'default/index.html'"
p253
ssS'locals'
p254
(dp255
S'self'
p256
S"<Row {'profile': 'http://www.orkut.com.br/Main#P...elete_record': <function <lambda> at 0x9f7aa3c>}>"
p257
sS'key'
p258
S"'select'"
p259
sssS'traceback'
p260
S'Traceback (most recent call last):\n  File "/home/tiago/moderatool/gluon/restricted.py", line 188, in restricted\n    exec ccode in environment\n  File "/home/tiago/moderatool/applications/moderatool/controllers/default.py", line 57, in <module>\n  File "/home/tiago/moderatool/gluon/globals.py", line 95, in <lambda>\n    self._caller = lambda f: f()\n  File "/home/tiago/moderatool/applications/moderatool/controllers/default.py", line 17, in index\n    members = Members(Members.id>0).select()\n  File "/home/tiago/moderatool/gluon/dal.py", line 3174, in __getattr__\n    return dict.__getitem__(self,key)\nKeyError: \'select\'\n'
p261
s.